target datalayout = "e-m:e-p270:32:32-p271:32:32-p272:64:64-i64:64-i128:128-f80:128-n8:16:32:64-S128"
target triple = "x86_64-pc-linux-gnu"

@.str = private unnamed_addr constant [30 x i8] c"../openssl/crypto/evp/p_lib.c\00", align 1
@__func__.EVP_PKEY_set_type_by_keymgmt = private unnamed_addr constant [29 x i8] c"EVP_PKEY_set_type_by_keymgmt\00", align 1

; Function Attrs: nounwind uwtable
define i32 @EVP_PKEY_set_type_by_keymgmt(ptr noundef %0, ptr noundef %1) #0 {
  %3 = alloca i32, align 4
  %4 = alloca ptr, align 8
  %5 = alloca ptr, align 8
  %6 = alloca [2 x ptr], align 16
  %7 = alloca i32, align 4
  store ptr %0, ptr %4, align 8, !tbaa !3
  store ptr %1, ptr %5, align 8, !tbaa !34
  call void @llvm.lifetime.start.p0(i64 16, ptr %6) #8
  call void @llvm.memset.p0.i64(ptr align 16 %6, i8 0, i64 16, i1 false)
  %8 = load ptr, ptr %5, align 8, !tbaa !34
  %9 = call i32 @EVP_KEYMGMT_names_do_all(ptr noundef %8, ptr noundef @find_ameth, ptr noundef %6)
  %10 = icmp ne i32 %9, 0
  br i1 %10, label %11, label %15

11:                                               ; preds = %2
  %12 = getelementptr inbounds [2 x ptr], ptr %6, i64 0, i64 1
  %13 = load ptr, ptr %12, align 8, !tbaa !39
  %14 = icmp ne ptr %13, null
  br i1 %14, label %15, label %16

15:                                               ; preds = %11, %2
  call void @ERR_new()
  call void @ERR_set_debug(ptr noundef @.str, i32 noundef 1690, ptr noundef @__func__.EVP_PKEY_set_type_by_keymgmt)
  call void (i32, i32, ptr, ...) @ERR_set_error(i32 noundef 6, i32 noundef 786691, ptr noundef null)
  store i32 0, ptr %3, align 4
  store i32 1, ptr %7, align 4
  br label %33

16:                                               ; preds = %11
  %17 = load ptr, ptr %4, align 8, !tbaa !3
  %18 = getelementptr inbounds [2 x ptr], ptr %6, i64 0, i64 0
  %19 = load ptr, ptr %18, align 16, !tbaa !39
  %20 = getelementptr inbounds [2 x ptr], ptr %6, i64 0, i64 0
  %21 = load ptr, ptr %20, align 16, !tbaa !39
  %22 = icmp eq ptr %21, null
  br i1 %22, label %23, label %24

23:                                               ; preds = %16
  br label %29

24:                                               ; preds = %16
  %25 = getelementptr inbounds [2 x ptr], ptr %6, i64 0, i64 0
  %26 = load ptr, ptr %25, align 16, !tbaa !39
  %27 = call i64 @strlen(ptr noundef %26) #9
  %28 = trunc i64 %27 to i32
  br label %29

29:                                               ; preds = %24, %23
  %30 = phi i32 [ -1, %23 ], [ %28, %24 ]
  %31 = load ptr, ptr %5, align 8, !tbaa !34
  %32 = call i32 @pkey_set_type(ptr noundef %17, ptr noundef null, i32 noundef 0, ptr noundef %19, i32 noundef %30, ptr noundef %31)
  store i32 %32, ptr %3, align 4
  store i32 1, ptr %7, align 4
  br label %33

33:                                               ; preds = %29, %15
  call void @llvm.lifetime.end.p0(i64 16, ptr %6) #8
  %34 = load i32, ptr %3, align 4
  ret i32 %34
}