; Function Attrs: nounwind uwtable
define range(i32 0, 2) i32 @EVP_PKEY_set_type_by_keymgmt(ptr noundef %0, ptr noundef %1) local_unnamed_addr #0 {
  %3 = alloca [2 x ptr], align 16
  call void @llvm.lifetime.start.p0(i64 16, ptr nonnull %3) #12
  call void @llvm.memset.p0.i64(ptr noundef nonnull align 16 dereferenceable(16) %3, i8 0, i64 16, i1 false)
  %4 = call i32 @EVP_KEYMGMT_names_do_all(ptr noundef %1, ptr noundef nonnull @find_ameth, ptr noundef nonnull %3) #12
  %5 = icmp eq i32 %4, 0
  %6 = getelementptr inbounds nuw i8, ptr %3, i64 8
  %7 = load ptr, ptr %6, align 8
  %8 = icmp ne ptr %7, null
  %or.cond = select i1 %5, i1 true, i1 %8
  br i1 %or.cond, label %9, label %10

9:                                                ; preds = %2
  call void @ERR_new() #12
  call void @ERR_set_debug(ptr noundef nonnull @.str, i32 noundef 1690, ptr noundef nonnull @__func__.EVP_PKEY_set_type_by_keymgmt) #12
  call void (i32, i32, ptr, ...) @ERR_set_error(i32 noundef 6, i32 noundef 786691, ptr noundef null) #12
  br label %17

10:                                               ; preds = %2
  %11 = load ptr, ptr %3, align 16, !tbaa !47
  %12 = icmp eq ptr %11, null
  br i1 %12, label %.split5, label %.split

.split5:                                          ; preds = %10
  %13 = call fastcc i32 @pkey_set_type(ptr noundef %0, ptr noundef null, i32 noundef 0, ptr noundef null, i32 noundef -1, ptr noundef %1)
  br label %17

.split:                                           ; preds = %10
  %14 = call i64 @strlen(ptr noundef nonnull dereferenceable(1) %11) #13
  %15 = trunc i64 %14 to i32
  %16 = call fastcc i32 @pkey_set_type(ptr noundef %0, ptr noundef null, i32 noundef 0, ptr noundef nonnull %11, i32 noundef %15, ptr noundef %1)
  br label %17

17:                                               ; preds = %.split, %.split5, %9
  %.0 = phi i32 [ 0, %9 ], [ %16, %.split ], [ %13, %.split5 ]
  call void @llvm.lifetime.end.p0(i64 16, ptr nonnull %3) #12
  ret i32 %.0
}